target datalayout = "e-m:e-p270:32:32-p271:32:32-p272:64:64-i64:64-i128:128-f80:128-n8:16:32:64-S128"
target triple = "x86_64-pc-linux-gnu"

%struct.PROV_ECDSA_CTX = type { ptr, ptr, ptr, i32, i8, [256 x i8], i64, [50 x i8], ptr, ptr, i64, ptr, i64, ptr, ptr, i32 }

@.str.11 = private unnamed_addr constant [13 x i8] c"algorithm-id\00", align 1
@.str.12 = private unnamed_addr constant [12 x i8] c"digest-size\00", align 1
@.str.13 = private unnamed_addr constant [7 x i8] c"digest\00", align 1
@.str.14 = private unnamed_addr constant [11 x i8] c"nonce-type\00", align 1

; Function Attrs: nounwind uwtable
define internal i32 @ecdsa_get_ctx_params(ptr noundef %0, ptr noundef %1) #0 {
  %3 = alloca i32, align 4
  %4 = alloca ptr, align 8
  %5 = alloca ptr, align 8
  %6 = alloca ptr, align 8
  %7 = alloca ptr, align 8
  %8 = alloca i32, align 4
  store ptr %0, ptr %4, align 8, !tbaa !3
  store ptr %1, ptr %5, align 8, !tbaa !19
  call void @llvm.lifetime.start.p0(i64 8, ptr %6) #7
  %9 = load ptr, ptr %4, align 8, !tbaa !3
  store ptr %9, ptr %6, align 8, !tbaa !3
  call void @llvm.lifetime.start.p0(i64 8, ptr %7) #7
  %10 = load ptr, ptr %6, align 8, !tbaa !3
  %11 = icmp eq ptr %10, null
  br i1 %11, label %12, label %13

12:                                               ; preds = %2
  store i32 0, ptr %3, align 4
  store i32 1, ptr %8, align 4
  br label %89

13:                                               ; preds = %2
  %14 = load ptr, ptr %5, align 8, !tbaa !19
  %15 = call ptr @OSSL_PARAM_locate(ptr noundef %14, ptr noundef @.str.11)
  store ptr %15, ptr %7, align 8, !tbaa !19
  %16 = load ptr, ptr %7, align 8, !tbaa !19
  %17 = icmp ne ptr %16, null
  br i1 %17, label %18, label %37

18:                                               ; preds = %13
  %19 = load ptr, ptr %7, align 8, !tbaa !19
  %20 = load ptr, ptr %6, align 8, !tbaa !3
  %21 = getelementptr inbounds nuw %struct.PROV_ECDSA_CTX, ptr %20, i32 0, i32 6
  %22 = load i64, ptr %21, align 8, !tbaa !39
  %23 = icmp eq i64 %22, 0
  br i1 %23, label %24, label %25

24:                                               ; preds = %18
  br label %29

25:                                               ; preds = %18
  %26 = load ptr, ptr %6, align 8, !tbaa !3
  %27 = getelementptr inbounds nuw %struct.PROV_ECDSA_CTX, ptr %26, i32 0, i32 5
  %28 = getelementptr inbounds [256 x i8], ptr %27, i64 0, i64 0
  br label %29

29:                                               ; preds = %25, %24
  %30 = phi ptr [ null, %24 ], [ %28, %25 ]
  %31 = load ptr, ptr %6, align 8, !tbaa !3
  %32 = getelementptr inbounds nuw %struct.PROV_ECDSA_CTX, ptr %31, i32 0, i32 6
  %33 = load i64, ptr %32, align 8, !tbaa !39
  %34 = call i32 @OSSL_PARAM_set_octet_string(ptr noundef %19, ptr noundef %30, i64 noundef %33)
  %35 = icmp ne i32 %34, 0
  br i1 %35, label %37, label %36

36:                                               ; preds = %29
  store i32 0, ptr %3, align 4
  store i32 1, ptr %8, align 4
  br label %89

37:                                               ; preds = %29, %13
  %38 = load ptr, ptr %5, align 8, !tbaa !19
  %39 = call ptr @OSSL_PARAM_locate(ptr noundef %38, ptr noundef @.str.12)
  store ptr %39, ptr %7, align 8, !tbaa !19
  %40 = load ptr, ptr %7, align 8, !tbaa !19
  %41 = icmp ne ptr %40, null
  br i1 %41, label %42, label %50

42:                                               ; preds = %37
  %43 = load ptr, ptr %7, align 8, !tbaa !19
  %44 = load ptr, ptr %6, align 8, !tbaa !3
  %45 = getelementptr inbounds nuw %struct.PROV_ECDSA_CTX, ptr %44, i32 0, i32 10
  %46 = load i64, ptr %45, align 8, !tbaa !40
  %47 = call i32 @OSSL_PARAM_set_size_t(ptr noundef %43, i64 noundef %46)
  %48 = icmp ne i32 %47, 0
  br i1 %48, label %50, label %49

49:                                               ; preds = %42
  store i32 0, ptr %3, align 4
  store i32 1, ptr %8, align 4
  br label %89

50:                                               ; preds = %42, %37
  %51 = load ptr, ptr %5, align 8, !tbaa !19
  %52 = call ptr @OSSL_PARAM_locate(ptr noundef %51, ptr noundef @.str.13)
  store ptr %52, ptr %7, align 8, !tbaa !19
  %53 = load ptr, ptr %7, align 8, !tbaa !19
  %54 = icmp ne ptr %53, null
  br i1 %54, label %55, label %75

55:                                               ; preds = %50
  %56 = load ptr, ptr %7, align 8, !tbaa !19
  %57 = load ptr, ptr %6, align 8, !tbaa !3
  %58 = getelementptr inbounds nuw %struct.PROV_ECDSA_CTX, ptr %57, i32 0, i32 8
  %59 = load ptr, ptr %58, align 8, !tbaa !27
  %60 = icmp eq ptr %59, null
  br i1 %60, label %61, label %65

61:                                               ; preds = %55
  %62 = load ptr, ptr %6, align 8, !tbaa !3
  %63 = getelementptr inbounds nuw %struct.PROV_ECDSA_CTX, ptr %62, i32 0, i32 7
  %64 = getelementptr inbounds [50 x i8], ptr %63, i64 0, i64 0
  br label %70

65:                                               ; preds = %55
  %66 = load ptr, ptr %6, align 8, !tbaa !3
  %67 = getelementptr inbounds nuw %struct.PROV_ECDSA_CTX, ptr %66, i32 0, i32 8
  %68 = load ptr, ptr %67, align 8, !tbaa !27
  %69 = call ptr @EVP_MD_get0_name(ptr noundef %68)
  br label %70

70:                                               ; preds = %65, %61
  %71 = phi ptr [ %64, %61 ], [ %69, %65 ]
  %72 = call i32 @OSSL_PARAM_set_utf8_string(ptr noundef %56, ptr noundef %71)
  %73 = icmp ne i32 %72, 0
  br i1 %73, label %75, label %74

74:                                               ; preds = %70
  store i32 0, ptr %3, align 4
  store i32 1, ptr %8, align 4
  br label %89

75:                                               ; preds = %70, %50
  %76 = load ptr, ptr %5, align 8, !tbaa !19
  %77 = call ptr @OSSL_PARAM_locate(ptr noundef %76, ptr noundef @.str.14)
  store ptr %77, ptr %7, align 8, !tbaa !19
  %78 = load ptr, ptr %7, align 8, !tbaa !19
  %79 = icmp ne ptr %78, null
  br i1 %79, label %80, label %88

80:                                               ; preds = %75
  %81 = load ptr, ptr %7, align 8, !tbaa !19
  %82 = load ptr, ptr %6, align 8, !tbaa !3
  %83 = getelementptr inbounds nuw %struct.PROV_ECDSA_CTX, ptr %82, i32 0, i32 15
  %84 = load i32, ptr %83, align 8, !tbaa !41
  %85 = call i32 @OSSL_PARAM_set_uint(ptr noundef %81, i32 noundef %84)
  %86 = icmp ne i32 %85, 0
  br i1 %86, label %88, label %87

87:                                               ; preds = %80
  store i32 0, ptr %3, align 4
  store i32 1, ptr %8, align 4
  br label %89

88:                                               ; preds = %80, %75
  store i32 1, ptr %3, align 4
  store i32 1, ptr %8, align 4
  br label %89

89:                                               ; preds = %88, %87, %74, %49, %36, %12
  call void @llvm.lifetime.end.p0(i64 8, ptr %7) #7
  call void @llvm.lifetime.end.p0(i64 8, ptr %6) #7
  %90 = load i32, ptr %3, align 4
  ret i32 %90
}