; Function Attrs: nounwind uwtable
define internal range(i32 0, 2) i32 @ecdsa_get_ctx_params(ptr noundef %0, ptr noundef %1) #0 {
  %3 = icmp eq ptr %0, null
  br i1 %3, label %39, label %4

4:                                                ; preds = %2
  %5 = tail call ptr @OSSL_PARAM_locate(ptr noundef %1, ptr noundef nonnull @.str.11) #8
  %.not = icmp eq ptr %5, null
  br i1 %.not, label %13, label %6

6:                                                ; preds = %4
  %7 = getelementptr inbounds nuw i8, ptr %0, i64 288
  %8 = load i64, ptr %7, align 8, !tbaa !38
  %9 = icmp eq i64 %8, 0
  %10 = getelementptr inbounds nuw i8, ptr %0, i64 29
  %11 = select i1 %9, ptr null, ptr %10
  %12 = tail call i32 @OSSL_PARAM_set_octet_string(ptr noundef nonnull %5, ptr noundef %11, i64 noundef %8) #8
  %.not28 = icmp eq i32 %12, 0
  br i1 %.not28, label %39, label %13

13:                                               ; preds = %6, %4
  %14 = tail call ptr @OSSL_PARAM_locate(ptr noundef %1, ptr noundef nonnull @.str.12) #8
  %.not29 = icmp eq ptr %14, null
  br i1 %.not29, label %19, label %15

15:                                               ; preds = %13
  %16 = getelementptr inbounds nuw i8, ptr %0, i64 368
  %17 = load i64, ptr %16, align 8, !tbaa !27
  %18 = tail call i32 @OSSL_PARAM_set_size_t(ptr noundef nonnull %14, i64 noundef %17) #8
  %.not30 = icmp eq i32 %18, 0
  br i1 %.not30, label %39, label %19

19:                                               ; preds = %15, %13
  %20 = tail call ptr @OSSL_PARAM_locate(ptr noundef %1, ptr noundef nonnull @.str.13) #8
  %.not31 = icmp eq ptr %20, null
  br i1 %.not31, label %32, label %21

21:                                               ; preds = %19
  %22 = getelementptr inbounds nuw i8, ptr %0, i64 352
  %23 = load ptr, ptr %22, align 8, !tbaa !28
  %24 = icmp eq ptr %23, null
  br i1 %24, label %25, label %27

25:                                               ; preds = %21
  %26 = getelementptr inbounds nuw i8, ptr %0, i64 296
  br label %29

27:                                               ; preds = %21
  %28 = tail call ptr @EVP_MD_get0_name(ptr noundef nonnull %23) #8
  br label %29

29:                                               ; preds = %27, %25
  %30 = phi ptr [ %26, %25 ], [ %28, %27 ]
  %31 = tail call i32 @OSSL_PARAM_set_utf8_string(ptr noundef nonnull %20, ptr noundef %30) #8
  %.not32 = icmp eq i32 %31, 0
  br i1 %.not32, label %39, label %32

32:                                               ; preds = %29, %19
  %33 = tail call ptr @OSSL_PARAM_locate(ptr noundef %1, ptr noundef nonnull @.str.14) #8
  %.not33 = icmp eq ptr %33, null
  br i1 %.not33, label %38, label %34

34:                                               ; preds = %32
  %35 = getelementptr inbounds nuw i8, ptr %0, i64 408
  %36 = load i32, ptr %35, align 8, !tbaa !39
  %37 = tail call i32 @OSSL_PARAM_set_uint(ptr noundef nonnull %33, i32 noundef %36) #8
  %.not34 = icmp eq i32 %37, 0
  br i1 %.not34, label %39, label %38

38:                                               ; preds = %34, %32
  br label %39

39:                                               ; preds = %34, %29, %15, %6, %2, %38
  %.0 = phi i32 [ 1, %38 ], [ 0, %2 ], [ 0, %6 ], [ 0, %15 ], [ 0, %29 ], [ 0, %34 ]
  ret i32 %.0
}